target datalayout = "e-m:e-p270:32:32-p271:32:32-p272:64:64-i64:64-i128:128-f80:128-n8:16:32:64-S128"
target triple = "x86_64-pc-linux-gnu"

; Function Attrs: nounwind uwtable
define hidden ptr @SDL_GetColorPrimariesConversionMatrix(i32 noundef %0, i32 noundef %1) #0 {
  %3 = alloca ptr, align 8
  %4 = alloca i32, align 4
  %5 = alloca i32, align 4
  store i32 %0, ptr %4, align 4
  store i32 %1, ptr %5, align 4
  %6 = load i32, ptr %5, align 4
  switch i32 %6, label %29 [
    i32 6, label %7
    i32 7, label %7
    i32 1, label %13
    i32 9, label %21
  ]

7:                                                ; preds = %2, %2
  %8 = load i32, ptr %4, align 4
  switch i32 %8, label %11 [
    i32 1, label %9
    i32 9, label %10
  ]

9:                                                ; preds = %7
  store ptr @SDL_GetColorPrimariesConversionMatrix.mat709to601, ptr %3, align 8
  br label %31

10:                                               ; preds = %7
  store ptr @SDL_GetColorPrimariesConversionMatrix.mat2020to601, ptr %3, align 8
  br label %31

11:                                               ; preds = %7
  br label %12

12:                                               ; preds = %11
  br label %30

13:                                               ; preds = %2
  %14 = load i32, ptr %4, align 4
  switch i32 %14, label %19 [
    i32 6, label %15
    i32 7, label %15
    i32 9, label %16
    i32 11, label %17
    i32 12, label %18
  ]

15:                                               ; preds = %13, %13
  store ptr @SDL_GetColorPrimariesConversionMatrix.mat601to709, ptr %3, align 8
  br label %31

16:                                               ; preds = %13
  store ptr @SDL_GetColorPrimariesConversionMatrix.mat2020to709, ptr %3, align 8
  br label %31

17:                                               ; preds = %13
  store ptr @SDL_GetColorPrimariesConversionMatrix.matSMPTE431to709, ptr %3, align 8
  br label %31

18:                                               ; preds = %13
  store ptr @SDL_GetColorPrimariesConversionMatrix.matSMPTE432to709, ptr %3, align 8
  br label %31

19:                                               ; preds = %13
  br label %20

20:                                               ; preds = %19
  br label %30

21:                                               ; preds = %2
  %22 = load i32, ptr %4, align 4
  switch i32 %22, label %27 [
    i32 6, label %23
    i32 7, label %23
    i32 1, label %24
    i32 11, label %25
    i32 12, label %26
  ]

23:                                               ; preds = %21, %21
  store ptr @SDL_GetColorPrimariesConversionMatrix.mat601to2020, ptr %3, align 8
  br label %31

24:                                               ; preds = %21
  store ptr @SDL_GetColorPrimariesConversionMatrix.mat709to2020, ptr %3, align 8
  br label %31

25:                                               ; preds = %21
  store ptr @SDL_GetColorPrimariesConversionMatrix.matSMPTE431to2020, ptr %3, align 8
  br label %31

26:                                               ; preds = %21
  store ptr @SDL_GetColorPrimariesConversionMatrix.matSMPTE432to2020, ptr %3, align 8
  br label %31

27:                                               ; preds = %21
  br label %28

28:                                               ; preds = %27
  br label %30

29:                                               ; preds = %2
  br label %30

30:                                               ; preds = %29, %28, %20, %12
  store ptr null, ptr %3, align 8
  br label %31

31:                                               ; preds = %30, %26, %25, %24, %23, %18, %17, %16, %15, %10, %9
  %32 = load ptr, ptr %3, align 8
  ret ptr %32
}