; Function Attrs: mustprogress nofree norecurse nosync nounwind willreturn memory(none) uwtable
define hidden noundef ptr @SDL_GetColorPrimariesConversionMatrix(i32 noundef %0, i32 noundef %1) local_unnamed_addr #0 {
  switch i32 %1, label %10 [
    i32 6, label %3
    i32 7, label %3
    i32 1, label %4
    i32 9, label %6
  ]

3:                                                ; preds = %2, %2
  %switch.selectcmp = icmp eq i32 %0, 9
  %switch.select = select i1 %switch.selectcmp, ptr @SDL_GetColorPrimariesConversionMatrix.mat2020to601, ptr null
  %switch.selectcmp4 = icmp eq i32 %0, 1
  %switch.select5 = select i1 %switch.selectcmp4, ptr @SDL_GetColorPrimariesConversionMatrix.mat709to601, ptr %switch.select
  br label %10

4:                                                ; preds = %2
  %switch.tableidx = add i32 %0, -6
  %5 = icmp ult i32 %switch.tableidx, 7
  br i1 %5, label %switch.lookup, label %10

6:                                                ; preds = %2
  %switch.tableidx7 = add i32 %0, -1
  %7 = icmp ult i32 %switch.tableidx7, 12
  br i1 %7, label %switch.lookup6, label %10

switch.lookup:                                    ; preds = %4
  %8 = zext nneg i32 %switch.tableidx to i64
  %switch.gep = getelementptr inbounds nuw [7 x ptr], ptr @switch.table.SDL_GetColorPrimariesConversionMatrix, i64 0, i64 %8
  %switch.load = load ptr, ptr %switch.gep, align 8
  br label %10

switch.lookup6:                                   ; preds = %6
  %9 = zext nneg i32 %switch.tableidx7 to i64
  %switch.gep8 = getelementptr inbounds nuw [12 x ptr], ptr @switch.table.SDL_GetColorPrimariesConversionMatrix.9, i64 0, i64 %9
  %switch.load9 = load ptr, ptr %switch.gep8, align 8
  br label %10

10:                                               ; preds = %2, %4, %6, %switch.lookup6, %switch.lookup, %3
  %.0 = phi ptr [ %switch.select5, %3 ], [ %switch.load, %switch.lookup ], [ %switch.load9, %switch.lookup6 ], [ null, %6 ], [ null, %4 ], [ null, %2 ]
  ret ptr %.0
}